(iJob
Job
p1
(dp2
S'Keywords'
p3
(lp4
S'SQL'
p5
aS'VmWare'
p6
aS'C'
asS'Description'
p7
VC++ developer that know SQL, VmWare and C++
p8
sS'PosterIP'
p9
S'192.168.0.111'
p10
sS'Id'
p11
L1232779025L
sS'Title'
p12
VC++ developer
p13
sb.